target datalayout = "e-m:e-p270:32:32-p271:32:32-p272:64:64-i64:64-i128:128-f80:128-n8:16:32:64-S128"
target triple = "x86_64-pc-linux-gnu"

%"class.std::__cxx11::basic_string" = type { %"struct.std::__cxx11::basic_string<char>::_Alloc_hider", i64, %union.anon }
%"struct.std::__cxx11::basic_string<char>::_Alloc_hider" = type { ptr }
%union.anon = type { i64, [8 x i8] }
%"class.std::allocator" = type { i8 }

@_ZZN32pxrInternal_v0_24__pxrReserved__19ArchMakeTmpFileNameERKNSt7__cxx1112basic_stringIcSt11char_traitsIcESaIcEEES7_E6nCalls = internal global { i32 } { i32 1 }, align 4
@.str.2 = private unnamed_addr constant [11 x i8] c"%s/%s.%d%s\00", align 1
@.str.3 = private unnamed_addr constant [14 x i8] c"%s/%s.%d.%d%s\00", align 1
@_ZN32pxrInternal_v0_24__pxrReserved__L7_TmpDirE = internal global ptr null, align 8
@.str.10 = private unnamed_addr constant [50 x i8] c"basic_string: construction from null is not valid\00", align 1

; Function Attrs: mustprogress nounwind uwtable
define linkonce_odr noundef i64 @_ZNSt11char_traitsIcE6lengthEPKc(ptr noundef %0) #2 comdat align 2 {
  %2 = alloca ptr, align 8
  store ptr %0, ptr %2, align 8
  %3 = load ptr, ptr %2, align 8
  %4 = call i64 @strlen(ptr noundef %3) #6
  ret i64 %4
}

; Function Attrs: mustprogress nounwind uwtable
define linkonce_odr void @_ZNSt7__cxx1112basic_stringIcSt11char_traitsIcESaIcEE12_Alloc_hiderD2Ev(ptr noundef nonnull align 8 dereferenceable(8) %0) unnamed_addr #2 comdat align 2 {
  %2 = alloca ptr, align 8
  store ptr %0, ptr %2, align 8
  %3 = load ptr, ptr %2, align 8
  call void @_ZNSaIcED2Ev(ptr noundef nonnull align 1 dereferenceable(1) %3) #6
  ret void
}

; Function Attrs: mustprogress nounwind uwtable
define linkonce_odr noundef i32 @_ZNSt13__atomic_baseIiEppEi(ptr noundef nonnull align 4 dereferenceable(4) %0, i32 noundef %1) #2 comdat align 2 {
  %3 = alloca ptr, align 8
  %4 = alloca i32, align 4
  %5 = alloca i32, align 4
  %6 = alloca i32, align 4
  %7 = alloca i32, align 4
  %8 = alloca ptr, align 8
  %9 = alloca i32, align 4
  store ptr %0, ptr %8, align 8
  store i32 %1, ptr %9, align 4
  %10 = load ptr, ptr %8, align 8
  store ptr %10, ptr %3, align 8
  store i32 1, ptr %4, align 4
  store i32 5, ptr %5, align 4
  %11 = load ptr, ptr %3, align 8
  %12 = load i32, ptr %5, align 4
  %13 = load i32, ptr %4, align 4
  store i32 %13, ptr %6, align 4
  switch i32 %12, label %14 [
    i32 1, label %17
    i32 2, label %17
    i32 3, label %20
    i32 4, label %23
    i32 5, label %26
  ]

14:                                               ; preds = %2
  %15 = load i32, ptr %6, align 4
  %16 = atomicrmw add ptr %11, i32 %15 monotonic, align 4
  store i32 %16, ptr %7, align 4
  br label %29

17:                                               ; preds = %2, %2
  %18 = load i32, ptr %6, align 4
  %19 = atomicrmw add ptr %11, i32 %18 acquire, align 4
  store i32 %19, ptr %7, align 4
  br label %29

20:                                               ; preds = %2
  %21 = load i32, ptr %6, align 4
  %22 = atomicrmw add ptr %11, i32 %21 release, align 4
  store i32 %22, ptr %7, align 4
  br label %29

23:                                               ; preds = %2
  %24 = load i32, ptr %6, align 4
  %25 = atomicrmw add ptr %11, i32 %24 acq_rel, align 4
  store i32 %25, ptr %7, align 4
  br label %29

26:                                               ; preds = %2
  %27 = load i32, ptr %6, align 4
  %28 = atomicrmw add ptr %11, i32 %27 seq_cst, align 4
  store i32 %28, ptr %7, align 4
  br label %29

29:                                               ; preds = %26, %23, %20, %17, %14
  %30 = load i32, ptr %7, align 4
  ret i32 %30
}

; Function Attrs: mustprogress uwtable
define linkonce_odr void @_ZNSt7__cxx1112basic_stringIcSt11char_traitsIcESaIcEEC2IS3_EEPKcRKS3_(ptr noundef nonnull align 8 dereferenceable(32) %0, ptr noundef %1, ptr noundef nonnull align 1 dereferenceable(1) %2) unnamed_addr #0 comdat align 2 personality ptr @__gxx_personality_v0 {
  %4 = alloca ptr, align 8
  %5 = alloca ptr, align 8
  %6 = alloca ptr, align 8
  %7 = alloca ptr, align 8
  %8 = alloca i32, align 4
  %9 = alloca ptr, align 8
  store ptr %0, ptr %4, align 8
  store ptr %1, ptr %5, align 8
  store ptr %2, ptr %6, align 8
  %10 = load ptr, ptr %4, align 8
  %11 = getelementptr inbounds nuw %"class.std::__cxx11::basic_string", ptr %10, i32 0, i32 0
  %12 = call noundef ptr @_ZNSt7__cxx1112basic_stringIcSt11char_traitsIcESaIcEE13_M_local_dataEv(ptr noundef nonnull align 8 dereferenceable(32) %10)
  %13 = load ptr, ptr %6, align 8
  call void @_ZNSt7__cxx1112basic_stringIcSt11char_traitsIcESaIcEE12_Alloc_hiderC1EPcRKS3_(ptr noundef nonnull align 8 dereferenceable(8) %11, ptr noundef %12, ptr noundef nonnull align 1 dereferenceable(1) %13)
  %14 = load ptr, ptr %5, align 8
  %15 = icmp eq ptr %14, null
  br i1 %15, label %16, label %22

16:                                               ; preds = %3
  invoke void @_ZSt19__throw_logic_errorPKc(ptr noundef @.str.10) #15
          to label %17 unwind label %18

17:                                               ; preds = %16
  unreachable

18:                                               ; preds = %26, %22, %16
  %19 = landingpad { ptr, i32 }
          cleanup
  %20 = extractvalue { ptr, i32 } %19, 0
  store ptr %20, ptr %7, align 8
  %21 = extractvalue { ptr, i32 } %19, 1
  store i32 %21, ptr %8, align 4
  call void @_ZNSt7__cxx1112basic_stringIcSt11char_traitsIcESaIcEE12_Alloc_hiderD2Ev(ptr noundef nonnull align 8 dereferenceable(8) %11) #6
  br label %31

22:                                               ; preds = %3
  %23 = load ptr, ptr %5, align 8
  %24 = load ptr, ptr %5, align 8
  %25 = invoke noundef i64 @_ZNSt11char_traitsIcE6lengthEPKc(ptr noundef %24)
          to label %26 unwind label %18

26:                                               ; preds = %22
  %27 = getelementptr inbounds i8, ptr %23, i64 %25
  store ptr %27, ptr %9, align 8
  %28 = load ptr, ptr %5, align 8
  %29 = load ptr, ptr %9, align 8
  invoke void @_ZNSt7__cxx1112basic_stringIcSt11char_traitsIcESaIcEE12_M_constructIPKcEEvT_S8_St20forward_iterator_tag(ptr noundef nonnull align 8 dereferenceable(32) %10, ptr noundef %28, ptr noundef %29)
          to label %30 unwind label %18

30:                                               ; preds = %26
  ret void

31:                                               ; preds = %18
  %32 = load ptr, ptr %7, align 8
  %33 = load i32, ptr %8, align 4
  %34 = insertvalue { ptr, i32 } poison, ptr %32, 0
  %35 = insertvalue { ptr, i32 } %34, i32 %33, 1
  resume { ptr, i32 } %35
}

; Function Attrs: mustprogress nounwind uwtable
define noundef ptr @_ZN32pxrInternal_v0_24__pxrReserved__13ArchGetTmpDirEv() #2 {
  %1 = load ptr, ptr @_ZN32pxrInternal_v0_24__pxrReserved__L7_TmpDirE, align 8
  ret ptr %1
}

; Function Attrs: mustprogress uwtable
define void @_ZN32pxrInternal_v0_24__pxrReserved__19ArchMakeTmpFileNameERKNSt7__cxx1112basic_stringIcSt11char_traitsIcESaIcEEES7_(ptr dead_on_unwind noalias writable sret(%"class.std::__cxx11::basic_string") align 8 %0, ptr noundef nonnull align 8 dereferenceable(32) %1, ptr noundef nonnull align 8 dereferenceable(32) %2) #0 personality ptr @__gxx_personality_v0 {
  %4 = alloca ptr, align 8
  %5 = alloca ptr, align 8
  %6 = alloca ptr, align 8
  %7 = alloca %"class.std::__cxx11::basic_string", align 8
  %8 = alloca %"class.std::allocator", align 1
  %9 = alloca ptr, align 8
  %10 = alloca i32, align 4
  %11 = alloca i32, align 4
  %12 = alloca i32, align 4
  %13 = alloca i32, align 4
  store ptr %0, ptr %4, align 8
  store ptr %1, ptr %5, align 8
  store ptr %2, ptr %6, align 8
  %14 = call noundef ptr @_ZN32pxrInternal_v0_24__pxrReserved__13ArchGetTmpDirEv()
  call void @_ZNSaIcEC1Ev(ptr noundef nonnull align 1 dereferenceable(1) %8) #6
  invoke void @_ZNSt7__cxx1112basic_stringIcSt11char_traitsIcESaIcEEC2IS3_EEPKcRKS3_(ptr noundef nonnull align 8 dereferenceable(32) %7, ptr noundef %14, ptr noundef nonnull align 1 dereferenceable(1) %8)
          to label %15 unwind label %28

15:                                               ; preds = %3
  call void @_ZNSaIcED1Ev(ptr noundef nonnull align 1 dereferenceable(1) %8) #6
  %16 = call noundef i32 @_ZNSt13__atomic_baseIiEppEi(ptr noundef nonnull align 4 dereferenceable(4) @_ZZN32pxrInternal_v0_24__pxrReserved__19ArchMakeTmpFileNameERKNSt7__cxx1112basic_stringIcSt11char_traitsIcESaIcEEES7_E6nCalls, i32 noundef 0) #6
  store i32 %16, ptr %11, align 4
  %17 = call i32 @getpid() #6
  store i32 %17, ptr %12, align 4
  %18 = load i32, ptr %11, align 4
  %19 = icmp eq i32 %18, 1
  br i1 %19, label %20, label %36

20:                                               ; preds = %15
  %21 = call noundef ptr @_ZNKSt7__cxx1112basic_stringIcSt11char_traitsIcESaIcEE5c_strEv(ptr noundef nonnull align 8 dereferenceable(32) %7) #6
  %22 = load ptr, ptr %5, align 8
  %23 = call noundef ptr @_ZNKSt7__cxx1112basic_stringIcSt11char_traitsIcESaIcEE5c_strEv(ptr noundef nonnull align 8 dereferenceable(32) %22) #6
  %24 = load i32, ptr %12, align 4
  %25 = load ptr, ptr %6, align 8
  %26 = call noundef ptr @_ZNKSt7__cxx1112basic_stringIcSt11char_traitsIcESaIcEE5c_strEv(ptr noundef nonnull align 8 dereferenceable(32) %25) #6
  invoke void (ptr, ptr, ...) @_ZN32pxrInternal_v0_24__pxrReserved__16ArchStringPrintfB5cxx11EPKcz(ptr dead_on_unwind writable sret(%"class.std::__cxx11::basic_string") align 8 %0, ptr noundef @.str.2, ptr noundef %21, ptr noundef %23, i32 noundef %24, ptr noundef %26)
          to label %27 unwind label %32

27:                                               ; preds = %20
  store i32 1, ptr %13, align 4
  br label %45

28:                                               ; preds = %3
  %29 = landingpad { ptr, i32 }
          cleanup
  %30 = extractvalue { ptr, i32 } %29, 0
  store ptr %30, ptr %9, align 8
  %31 = extractvalue { ptr, i32 } %29, 1
  store i32 %31, ptr %10, align 4
  call void @_ZNSaIcED1Ev(ptr noundef nonnull align 1 dereferenceable(1) %8) #6
  br label %46

32:                                               ; preds = %36, %20
  %33 = landingpad { ptr, i32 }
          cleanup
  %34 = extractvalue { ptr, i32 } %33, 0
  store ptr %34, ptr %9, align 8
  %35 = extractvalue { ptr, i32 } %33, 1
  store i32 %35, ptr %10, align 4
  call void @_ZNSt7__cxx1112basic_stringIcSt11char_traitsIcESaIcEED1Ev(ptr noundef nonnull align 8 dereferenceable(32) %7) #6
  br label %46

36:                                               ; preds = %15
  %37 = call noundef ptr @_ZNKSt7__cxx1112basic_stringIcSt11char_traitsIcESaIcEE5c_strEv(ptr noundef nonnull align 8 dereferenceable(32) %7) #6
  %38 = load ptr, ptr %5, align 8
  %39 = call noundef ptr @_ZNKSt7__cxx1112basic_stringIcSt11char_traitsIcESaIcEE5c_strEv(ptr noundef nonnull align 8 dereferenceable(32) %38) #6
  %40 = load i32, ptr %12, align 4
  %41 = load i32, ptr %11, align 4
  %42 = load ptr, ptr %6, align 8
  %43 = call noundef ptr @_ZNKSt7__cxx1112basic_stringIcSt11char_traitsIcESaIcEE5c_strEv(ptr noundef nonnull align 8 dereferenceable(32) %42) #6
  invoke void (ptr, ptr, ...) @_ZN32pxrInternal_v0_24__pxrReserved__16ArchStringPrintfB5cxx11EPKcz(ptr dead_on_unwind writable sret(%"class.std::__cxx11::basic_string") align 8 %0, ptr noundef @.str.3, ptr noundef %37, ptr noundef %39, i32 noundef %40, i32 noundef %41, ptr noundef %43)
          to label %44 unwind label %32

44:                                               ; preds = %36
  store i32 1, ptr %13, align 4
  br label %45

45:                                               ; preds = %44, %27
  call void @_ZNSt7__cxx1112basic_stringIcSt11char_traitsIcESaIcEED1Ev(ptr noundef nonnull align 8 dereferenceable(32) %7) #6
  ret void

46:                                               ; preds = %32, %28
  %47 = load ptr, ptr %9, align 8
  %48 = load i32, ptr %10, align 4
  %49 = insertvalue { ptr, i32 } poison, ptr %47, 0
  %50 = insertvalue { ptr, i32 } %49, i32 %48, 1
  resume { ptr, i32 } %50
}