; Function Attrs: mustprogress uwtable
define void @_ZN32pxrInternal_v0_24__pxrReserved__19ArchMakeTmpFileNameERKNSt7__cxx1112basic_stringIcSt11char_traitsIcESaIcEEES7_(ptr dead_on_unwind noalias writable sret(%"class.std::__cxx11::basic_string") align 8 %0, ptr noundef nonnull align 8 dereferenceable(32) %1, ptr noundef nonnull align 8 dereferenceable(32) %2) local_unnamed_addr #6 personality ptr @__gxx_personality_v0 {
  %4 = alloca %"class.std::__cxx11::basic_string", align 8
  %5 = alloca %"class.std::allocator", align 1
  %6 = load ptr, ptr @_ZN32pxrInternal_v0_24__pxrReserved__L7_TmpDirE, align 8
  call void @_ZNSaIcEC1Ev(ptr noundef nonnull align 1 dereferenceable(1) %5) #23
  %7 = invoke noundef ptr @_ZNSt7__cxx1112basic_stringIcSt11char_traitsIcESaIcEE13_M_local_dataEv(ptr noundef nonnull align 8 dereferenceable(32) %4)
          to label %.noexc unwind label %23

.noexc:                                           ; preds = %3
  invoke void @_ZNSt7__cxx1112basic_stringIcSt11char_traitsIcESaIcEE12_Alloc_hiderC1EPcRKS3_(ptr noundef nonnull align 8 dereferenceable(32) %4, ptr noundef %7, ptr noundef nonnull align 1 dereferenceable(1) %5)
          to label %.noexc12 unwind label %23

.noexc12:                                         ; preds = %.noexc
  %8 = icmp eq ptr %6, null
  br i1 %8, label %9, label %13

9:                                                ; preds = %.noexc12
  invoke void @_ZSt19__throw_logic_errorPKc(ptr noundef nonnull @.str.10) #26
          to label %10 unwind label %11

10:                                               ; preds = %9
  unreachable

11:                                               ; preds = %13, %9
  %12 = landingpad { ptr, i32 }
          cleanup
  call void @_ZNSaIcED2Ev(ptr noundef nonnull align 8 dereferenceable(32) %4) #23
  br label %.body

13:                                               ; preds = %.noexc12
  %14 = call noundef i64 @strlen(ptr noundef nonnull dereferenceable(1) %6) #23
  %15 = getelementptr inbounds i8, ptr %6, i64 %14
  invoke void @_ZNSt7__cxx1112basic_stringIcSt11char_traitsIcESaIcEE12_M_constructIPKcEEvT_S8_St20forward_iterator_tag(ptr noundef nonnull align 8 dereferenceable(32) %4, ptr noundef nonnull %6, ptr noundef nonnull %15)
          to label %_ZNSt7__cxx1112basic_stringIcSt11char_traitsIcESaIcEEC2IS3_EEPKcRKS3_.exit unwind label %11

_ZNSt7__cxx1112basic_stringIcSt11char_traitsIcESaIcEEC2IS3_EEPKcRKS3_.exit: ; preds = %13
  call void @_ZNSaIcED1Ev(ptr noundef nonnull align 1 dereferenceable(1) %5) #23
  %16 = atomicrmw add ptr @_ZZN32pxrInternal_v0_24__pxrReserved__19ArchMakeTmpFileNameERKNSt7__cxx1112basic_stringIcSt11char_traitsIcESaIcEEES7_E6nCalls, i32 1 seq_cst, align 4
  %17 = call i32 @getpid() #23
  %18 = icmp eq i32 %16, 1
  %19 = call noundef ptr @_ZNKSt7__cxx1112basic_stringIcSt11char_traitsIcESaIcEE5c_strEv(ptr noundef nonnull align 8 dereferenceable(32) %4) #23
  %20 = call noundef ptr @_ZNKSt7__cxx1112basic_stringIcSt11char_traitsIcESaIcEE5c_strEv(ptr noundef nonnull align 8 dereferenceable(32) %1) #23
  %21 = call noundef ptr @_ZNKSt7__cxx1112basic_stringIcSt11char_traitsIcESaIcEE5c_strEv(ptr noundef nonnull align 8 dereferenceable(32) %2) #23
  br i1 %18, label %22, label %27

22:                                               ; preds = %_ZNSt7__cxx1112basic_stringIcSt11char_traitsIcESaIcEEC2IS3_EEPKcRKS3_.exit
  invoke void (ptr, ptr, ...) @_ZN32pxrInternal_v0_24__pxrReserved__16ArchStringPrintfB5cxx11EPKcz(ptr dead_on_unwind writable sret(%"class.std::__cxx11::basic_string") align 8 %0, ptr noundef nonnull @.str.2, ptr noundef %19, ptr noundef %20, i32 noundef %17, ptr noundef %21)
          to label %28 unwind label %25

23:                                               ; preds = %.noexc, %3
  %24 = landingpad { ptr, i32 }
          cleanup
  br label %.body

.body:                                            ; preds = %11, %23
  %eh.lpad-body = phi { ptr, i32 } [ %24, %23 ], [ %12, %11 ]
  call void @_ZNSaIcED1Ev(ptr noundef nonnull align 1 dereferenceable(1) %5) #23
  br label %29

25:                                               ; preds = %27, %22
  %26 = landingpad { ptr, i32 }
          cleanup
  call void @_ZNSt7__cxx1112basic_stringIcSt11char_traitsIcESaIcEED1Ev(ptr noundef nonnull align 8 dereferenceable(32) %4) #23
  br label %29

27:                                               ; preds = %_ZNSt7__cxx1112basic_stringIcSt11char_traitsIcESaIcEEC2IS3_EEPKcRKS3_.exit
  invoke void (ptr, ptr, ...) @_ZN32pxrInternal_v0_24__pxrReserved__16ArchStringPrintfB5cxx11EPKcz(ptr dead_on_unwind writable sret(%"class.std::__cxx11::basic_string") align 8 %0, ptr noundef nonnull @.str.3, ptr noundef %19, ptr noundef %20, i32 noundef %17, i32 noundef %16, ptr noundef %21)
          to label %28 unwind label %25

28:                                               ; preds = %27, %22
  call void @_ZNSt7__cxx1112basic_stringIcSt11char_traitsIcESaIcEED1Ev(ptr noundef nonnull align 8 dereferenceable(32) %4) #23
  ret void

29:                                               ; preds = %25, %.body
  %.pn = phi { ptr, i32 } [ %26, %25 ], [ %eh.lpad-body, %.body ]
  resume { ptr, i32 } %.pn
}